target datalayout = "e-m:e-p270:32:32-p271:32:32-p272:64:64-i64:64-i128:128-f80:128-n8:16:32:64-S128"
target triple = "x86_64-pc-linux-gnu"

%struct.Vec_Int_t_ = type { i32, i32, ptr }
%struct.Vec_Str_t_ = type { i32, i32, ptr }

; Function Attrs: inlinehint nounwind uwtable
define internal void @Vec_StrGrow(ptr noundef %0, i32 noundef %1) #2 {
  %3 = alloca ptr, align 8
  %4 = alloca i32, align 4
  store ptr %0, ptr %3, align 8, !tbaa !49
  store i32 %1, ptr %4, align 4, !tbaa !8
  %5 = load ptr, ptr %3, align 8, !tbaa !49
  %6 = getelementptr inbounds nuw %struct.Vec_Str_t_, ptr %5, i32 0, i32 0
  %7 = load i32, ptr %6, align 8, !tbaa !51
  %8 = load i32, ptr %4, align 4, !tbaa !8
  %9 = icmp sge i32 %7, %8
  br i1 %9, label %10, label %11

10:                                               ; preds = %2
  br label %36

11:                                               ; preds = %2
  %12 = load ptr, ptr %3, align 8, !tbaa !49
  %13 = getelementptr inbounds nuw %struct.Vec_Str_t_, ptr %12, i32 0, i32 2
  %14 = load ptr, ptr %13, align 8, !tbaa !55
  %15 = icmp ne ptr %14, null
  br i1 %15, label %16, label %24

16:                                               ; preds = %11
  %17 = load ptr, ptr %3, align 8, !tbaa !49
  %18 = getelementptr inbounds nuw %struct.Vec_Str_t_, ptr %17, i32 0, i32 2
  %19 = load ptr, ptr %18, align 8, !tbaa !55
  %20 = load i32, ptr %4, align 4, !tbaa !8
  %21 = sext i32 %20 to i64
  %22 = mul i64 1, %21
  %23 = call ptr @realloc(ptr noundef %19, i64 noundef %22) #12
  br label %29

24:                                               ; preds = %11
  %25 = load i32, ptr %4, align 4, !tbaa !8
  %26 = sext i32 %25 to i64
  %27 = mul i64 1, %26
  %28 = call noalias ptr @malloc(i64 noundef %27) #11
  br label %29

29:                                               ; preds = %24, %16
  %30 = phi ptr [ %23, %16 ], [ %28, %24 ]
  %31 = load ptr, ptr %3, align 8, !tbaa !49
  %32 = getelementptr inbounds nuw %struct.Vec_Str_t_, ptr %31, i32 0, i32 2
  store ptr %30, ptr %32, align 8, !tbaa !55
  %33 = load i32, ptr %4, align 4, !tbaa !8
  %34 = load ptr, ptr %3, align 8, !tbaa !49
  %35 = getelementptr inbounds nuw %struct.Vec_Str_t_, ptr %34, i32 0, i32 0
  store i32 %33, ptr %35, align 8, !tbaa !51
  br label %36

36:                                               ; preds = %29, %10
  ret void
}

; Function Attrs: nounwind uwtable
define i32 @Io_WriteAigerEncode(ptr noundef %0, i32 noundef %1, i32 noundef %2) #0 {
  %4 = alloca ptr, align 8
  %5 = alloca i32, align 4
  %6 = alloca i32, align 4
  %7 = alloca i8, align 1
  store ptr %0, ptr %4, align 8, !tbaa !3
  store i32 %1, ptr %5, align 4, !tbaa !8
  store i32 %2, ptr %6, align 4, !tbaa !8
  call void @llvm.lifetime.start.p0(i64 1, ptr %7) #10
  br label %8

8:                                                ; preds = %12, %3
  %9 = load i32, ptr %6, align 4, !tbaa !8
  %10 = and i32 %9, -128
  %11 = icmp ne i32 %10, 0
  br i1 %11, label %12, label %25

12:                                               ; preds = %8
  %13 = load i32, ptr %6, align 4, !tbaa !8
  %14 = and i32 %13, 127
  %15 = or i32 %14, 128
  %16 = trunc i32 %15 to i8
  store i8 %16, ptr %7, align 1, !tbaa !10
  %17 = load i8, ptr %7, align 1, !tbaa !10
  %18 = load ptr, ptr %4, align 8, !tbaa !3
  %19 = load i32, ptr %5, align 4, !tbaa !8
  %20 = add nsw i32 %19, 1
  store i32 %20, ptr %5, align 4, !tbaa !8
  %21 = sext i32 %19 to i64
  %22 = getelementptr inbounds i8, ptr %18, i64 %21
  store i8 %17, ptr %22, align 1, !tbaa !10
  %23 = load i32, ptr %6, align 4, !tbaa !8
  %24 = lshr i32 %23, 7
  store i32 %24, ptr %6, align 4, !tbaa !8
  br label %8, !llvm.loop !11

25:                                               ; preds = %8
  %26 = load i32, ptr %6, align 4, !tbaa !8
  %27 = trunc i32 %26 to i8
  store i8 %27, ptr %7, align 1, !tbaa !10
  %28 = load i8, ptr %7, align 1, !tbaa !10
  %29 = load ptr, ptr %4, align 8, !tbaa !3
  %30 = load i32, ptr %5, align 4, !tbaa !8
  %31 = add nsw i32 %30, 1
  store i32 %31, ptr %5, align 4, !tbaa !8
  %32 = sext i32 %30 to i64
  %33 = getelementptr inbounds i8, ptr %29, i64 %32
  store i8 %28, ptr %33, align 1, !tbaa !10
  %34 = load i32, ptr %5, align 4, !tbaa !8
  call void @llvm.lifetime.end.p0(i64 1, ptr %7) #10
  ret i32 %34
}

; Function Attrs: inlinehint nounwind uwtable
define internal ptr @Vec_StrArray(ptr noundef %0) #2 {
  %2 = alloca ptr, align 8
  store ptr %0, ptr %2, align 8, !tbaa !49
  %3 = load ptr, ptr %2, align 8, !tbaa !49
  %4 = getelementptr inbounds nuw %struct.Vec_Str_t_, ptr %3, i32 0, i32 2
  %5 = load ptr, ptr %4, align 8, !tbaa !55
  ret ptr %5
}

; Function Attrs: inlinehint nounwind uwtable
define internal i32 @Vec_IntEntry(ptr noundef %0, i32 noundef %1) #2 {
  %3 = alloca ptr, align 8
  %4 = alloca i32, align 4
  store ptr %0, ptr %3, align 8, !tbaa !15
  store i32 %1, ptr %4, align 4, !tbaa !8
  %5 = load ptr, ptr %3, align 8, !tbaa !15
  %6 = getelementptr inbounds nuw %struct.Vec_Int_t_, ptr %5, i32 0, i32 2
  %7 = load ptr, ptr %6, align 8, !tbaa !37
  %8 = load i32, ptr %4, align 4, !tbaa !8
  %9 = sext i32 %8 to i64
  %10 = getelementptr inbounds i32, ptr %7, i64 %9
  %11 = load i32, ptr %10, align 4, !tbaa !8
  ret i32 %11
}

; Function Attrs: inlinehint nounwind uwtable
define internal ptr @Vec_StrAlloc(i32 noundef %0) #2 {
  %2 = alloca i32, align 4
  %3 = alloca ptr, align 8
  store i32 %0, ptr %2, align 4, !tbaa !8
  call void @llvm.lifetime.start.p0(i64 8, ptr %3) #10
  %4 = call noalias ptr @malloc(i64 noundef 16) #11
  store ptr %4, ptr %3, align 8, !tbaa !49
  %5 = load i32, ptr %2, align 4, !tbaa !8
  %6 = icmp sgt i32 %5, 0
  br i1 %6, label %7, label %11

7:                                                ; preds = %1
  %8 = load i32, ptr %2, align 4, !tbaa !8
  %9 = icmp slt i32 %8, 16
  br i1 %9, label %10, label %11

10:                                               ; preds = %7
  store i32 16, ptr %2, align 4, !tbaa !8
  br label %11

11:                                               ; preds = %10, %7, %1
  %12 = load ptr, ptr %3, align 8, !tbaa !49
  %13 = getelementptr inbounds nuw %struct.Vec_Str_t_, ptr %12, i32 0, i32 1
  store i32 0, ptr %13, align 4, !tbaa !54
  %14 = load i32, ptr %2, align 4, !tbaa !8
  %15 = load ptr, ptr %3, align 8, !tbaa !49
  %16 = getelementptr inbounds nuw %struct.Vec_Str_t_, ptr %15, i32 0, i32 0
  store i32 %14, ptr %16, align 8, !tbaa !51
  %17 = load ptr, ptr %3, align 8, !tbaa !49
  %18 = getelementptr inbounds nuw %struct.Vec_Str_t_, ptr %17, i32 0, i32 0
  %19 = load i32, ptr %18, align 8, !tbaa !51
  %20 = icmp ne i32 %19, 0
  br i1 %20, label %21, label %28

21:                                               ; preds = %11
  %22 = load ptr, ptr %3, align 8, !tbaa !49
  %23 = getelementptr inbounds nuw %struct.Vec_Str_t_, ptr %22, i32 0, i32 0
  %24 = load i32, ptr %23, align 8, !tbaa !51
  %25 = sext i32 %24 to i64
  %26 = mul i64 1, %25
  %27 = call noalias ptr @malloc(i64 noundef %26) #11
  br label %29

28:                                               ; preds = %11
  br label %29

29:                                               ; preds = %28, %21
  %30 = phi ptr [ %27, %21 ], [ null, %28 ]
  %31 = load ptr, ptr %3, align 8, !tbaa !49
  %32 = getelementptr inbounds nuw %struct.Vec_Str_t_, ptr %31, i32 0, i32 2
  store ptr %30, ptr %32, align 8, !tbaa !55
  %33 = load ptr, ptr %3, align 8, !tbaa !49
  call void @llvm.lifetime.end.p0(i64 8, ptr %3) #10
  ret ptr %33
}

; Function Attrs: inlinehint nounwind uwtable
define internal i32 @Vec_IntSize(ptr noundef %0) #2 {
  %2 = alloca ptr, align 8
  store ptr %0, ptr %2, align 8, !tbaa !15
  %3 = load ptr, ptr %2, align 8, !tbaa !15
  %4 = getelementptr inbounds nuw %struct.Vec_Int_t_, ptr %3, i32 0, i32 1
  %5 = load i32, ptr %4, align 4, !tbaa !35
  ret i32 %5
}

; Function Attrs: nounwind uwtable
define ptr @Io_WriteEncodeLiterals(ptr noundef %0) #0 {
  %2 = alloca ptr, align 8
  %3 = alloca ptr, align 8
  %4 = alloca i32, align 4
  %5 = alloca i32, align 4
  %6 = alloca i32, align 4
  %7 = alloca i32, align 4
  %8 = alloca i32, align 4
  store ptr %0, ptr %2, align 8, !tbaa !15
  call void @llvm.lifetime.start.p0(i64 8, ptr %3) #10
  call void @llvm.lifetime.start.p0(i64 4, ptr %4) #10
  store i32 0, ptr %4, align 4, !tbaa !8
  call void @llvm.lifetime.start.p0(i64 4, ptr %5) #10
  call void @llvm.lifetime.start.p0(i64 4, ptr %6) #10
  call void @llvm.lifetime.start.p0(i64 4, ptr %7) #10
  call void @llvm.lifetime.start.p0(i64 4, ptr %8) #10
  %9 = load ptr, ptr %2, align 8, !tbaa !15
  %10 = call i32 @Vec_IntSize(ptr noundef %9)
  %11 = mul nsw i32 2, %10
  %12 = call ptr @Vec_StrAlloc(i32 noundef %11)
  store ptr %12, ptr %3, align 8, !tbaa !49
  %13 = load ptr, ptr %2, align 8, !tbaa !15
  %14 = call i32 @Vec_IntEntry(ptr noundef %13, i32 noundef 0)
  store i32 %14, ptr %6, align 4, !tbaa !8
  %15 = load ptr, ptr %3, align 8, !tbaa !49
  %16 = call ptr @Vec_StrArray(ptr noundef %15)
  %17 = load i32, ptr %4, align 4, !tbaa !8
  %18 = load i32, ptr %6, align 4, !tbaa !8
  %19 = call i32 @Io_WriteAigerEncode(ptr noundef %16, i32 noundef %17, i32 noundef %18)
  store i32 %19, ptr %4, align 4, !tbaa !8
  store i32 1, ptr %8, align 4, !tbaa !8
  br label %20

20:                                               ; preds = %71, %1
  %21 = load i32, ptr %8, align 4, !tbaa !8
  %22 = load ptr, ptr %2, align 8, !tbaa !15
  %23 = call i32 @Vec_IntSize(ptr noundef %22)
  %24 = icmp slt i32 %21, %23
  br i1 %24, label %25, label %29

25:                                               ; preds = %20
  %26 = load ptr, ptr %2, align 8, !tbaa !15
  %27 = load i32, ptr %8, align 4, !tbaa !8
  %28 = call i32 @Vec_IntEntry(ptr noundef %26, i32 noundef %27)
  store i32 %28, ptr %5, align 4, !tbaa !8
  br label %29

29:                                               ; preds = %25, %20
  %30 = phi i1 [ false, %20 ], [ true, %25 ]
  br i1 %30, label %31, label %74

31:                                               ; preds = %29
  %32 = load i32, ptr %5, align 4, !tbaa !8
  %33 = load i32, ptr %6, align 4, !tbaa !8
  %34 = sub nsw i32 %32, %33
  store i32 %34, ptr %7, align 4, !tbaa !8
  %35 = load i32, ptr %5, align 4, !tbaa !8
  %36 = load i32, ptr %6, align 4, !tbaa !8
  %37 = icmp slt i32 %35, %36
  br i1 %37, label %38, label %41

38:                                               ; preds = %31
  %39 = load i32, ptr %7, align 4, !tbaa !8
  %40 = sub nsw i32 0, %39
  br label %43

41:                                               ; preds = %31
  %42 = load i32, ptr %7, align 4, !tbaa !8
  br label %43

43:                                               ; preds = %41, %38
  %44 = phi i32 [ %40, %38 ], [ %42, %41 ]
  store i32 %44, ptr %7, align 4, !tbaa !8
  %45 = load i32, ptr %7, align 4, !tbaa !8
  %46 = shl i32 %45, 1
  %47 = load i32, ptr %5, align 4, !tbaa !8
  %48 = load i32, ptr %6, align 4, !tbaa !8
  %49 = icmp slt i32 %47, %48
  %50 = zext i1 %49 to i32
  %51 = or i32 %46, %50
  store i32 %51, ptr %7, align 4, !tbaa !8
  %52 = load ptr, ptr %3, align 8, !tbaa !49
  %53 = call ptr @Vec_StrArray(ptr noundef %52)
  %54 = load i32, ptr %4, align 4, !tbaa !8
  %55 = load i32, ptr %7, align 4, !tbaa !8
  %56 = call i32 @Io_WriteAigerEncode(ptr noundef %53, i32 noundef %54, i32 noundef %55)
  store i32 %56, ptr %4, align 4, !tbaa !8
  %57 = load i32, ptr %5, align 4, !tbaa !8
  store i32 %57, ptr %6, align 4, !tbaa !8
  %58 = load i32, ptr %4, align 4, !tbaa !8
  %59 = add nsw i32 %58, 10
  %60 = load ptr, ptr %3, align 8, !tbaa !49
  %61 = getelementptr inbounds nuw %struct.Vec_Str_t_, ptr %60, i32 0, i32 0
  %62 = load i32, ptr %61, align 8, !tbaa !51
  %63 = icmp sgt i32 %59, %62
  br i1 %63, label %64, label %70

64:                                               ; preds = %43
  %65 = load ptr, ptr %3, align 8, !tbaa !49
  %66 = load ptr, ptr %3, align 8, !tbaa !49
  %67 = getelementptr inbounds nuw %struct.Vec_Str_t_, ptr %66, i32 0, i32 0
  %68 = load i32, ptr %67, align 8, !tbaa !51
  %69 = add nsw i32 %68, 1
  call void @Vec_StrGrow(ptr noundef %65, i32 noundef %69)
  br label %70

70:                                               ; preds = %64, %43
  br label %71

71:                                               ; preds = %70
  %72 = load i32, ptr %8, align 4, !tbaa !8
  %73 = add nsw i32 %72, 1
  store i32 %73, ptr %8, align 4, !tbaa !8
  br label %20, !llvm.loop !53

74:                                               ; preds = %29
  %75 = load i32, ptr %4, align 4, !tbaa !8
  %76 = load ptr, ptr %3, align 8, !tbaa !49
  %77 = getelementptr inbounds nuw %struct.Vec_Str_t_, ptr %76, i32 0, i32 1
  store i32 %75, ptr %77, align 4, !tbaa !54
  %78 = load ptr, ptr %3, align 8, !tbaa !49
  call void @llvm.lifetime.end.p0(i64 4, ptr %8) #10
  call void @llvm.lifetime.end.p0(i64 4, ptr %7) #10
  call void @llvm.lifetime.end.p0(i64 4, ptr %6) #10
  call void @llvm.lifetime.end.p0(i64 4, ptr %5) #10
  call void @llvm.lifetime.end.p0(i64 4, ptr %4) #10
  call void @llvm.lifetime.end.p0(i64 8, ptr %3) #10
  ret ptr %78
}